; Function Attrs: nounwind uwtable
define noalias noundef ptr @stmm_init_table(ptr noundef %0, ptr noundef %1) local_unnamed_addr #0 {
  %3 = tail call noalias dereferenceable_or_null(56) ptr @malloc(i64 noundef 56) #12
  %4 = icmp eq ptr %3, null
  br i1 %4, label %stmm_init_table_with_params.exit, label %5

5:                                                ; preds = %2
  store ptr %0, ptr %3, align 8
  %6 = getelementptr inbounds nuw i8, ptr %3, i64 8
  store ptr %1, ptr %6, align 8
  %7 = getelementptr inbounds nuw i8, ptr %3, i64 20
  store i32 0, ptr %7, align 4
  %8 = getelementptr inbounds nuw i8, ptr %3, i64 24
  store i32 5, ptr %8, align 8
  %9 = getelementptr inbounds nuw i8, ptr %3, i64 32
  store double 2.000000e+00, ptr %9, align 8
  %10 = getelementptr inbounds nuw i8, ptr %3, i64 28
  store i32 0, ptr %10, align 4
  %11 = getelementptr inbounds nuw i8, ptr %3, i64 16
  store i32 11, ptr %11, align 8
  %calloc.i = tail call dereferenceable_or_null(88) ptr @calloc(i64 1, i64 88)
  %12 = getelementptr inbounds nuw i8, ptr %3, i64 40
  store ptr %calloc.i, ptr %12, align 8
  %13 = icmp eq ptr %calloc.i, null
  br i1 %13, label %16, label %.preheader.preheader.i

.preheader.preheader.i:                           ; preds = %5
  %14 = tail call ptr @Extra_MmFixedStart(i32 noundef 24) #13
  %15 = getelementptr inbounds nuw i8, ptr %3, i64 48
  store ptr %14, ptr %15, align 8
  br label %stmm_init_table_with_params.exit

16:                                               ; preds = %5
  tail call void @free(ptr noundef nonnull %3) #13
  br label %stmm_init_table_with_params.exit

stmm_init_table_with_params.exit:                 ; preds = %2, %.preheader.preheader.i, %16
  %.027.i = phi ptr [ null, %16 ], [ %3, %.preheader.preheader.i ], [ null, %2 ]
  ret ptr %.027.i
}